(lp0
S'poi'
p1
aS'salary'
p2
aS'total_payments'
p3
aS'bonus'
p4
aS'bonus_total_ratio'
p5
aS'total_stock_value'
p6
aS'expenses'
p7
aS'exercised_stock_options'
p8
aS'other'
p9
aS'restricted_stock'
p10
aS'from_poi_to_this_person'
p11
aS'from_this_person_to_poi'
p12
aS'shared_receipt_with_poi'
p13
aS'to_messages'
p14
aS'from_messages'
p15
aS'from_email_poi_proportion'
p16
aS'to_email_poi_proportion'
p17
a.